target datalayout = "e-m:e-p270:32:32-p271:32:32-p272:64:64-i64:64-i128:128-f80:128-n8:16:32:64-S128"
target triple = "x86_64-pc-linux-gnu"

%struct.preference_strings = type { ptr, ptr, ptr }

@.str.6639 = private unnamed_addr constant [36 x i8] c"UTRAN Iub interface NBAP signalling\00", align 1
@.str.6640 = private unnamed_addr constant [5 x i8] c"NBAP\00", align 1
@.str.6641 = private unnamed_addr constant [5 x i8] c"nbap\00", align 1
@proto_nbap = internal global i32 0, align 4
@nbap_handle = internal global ptr null, align 8
@lch_contents = internal global [16 x i32] [i32 1, i32 1, i32 1, i32 1, i32 3, i32 3, i32 3, i32 1, i32 2, i32 0, i32 2, i32 2, i32 3, i32 2, i32 4, i32 1], align 16
@.str.6642 = private unnamed_addr constant [20 x i8] c"ib_sg_data_encoding\00", align 1
@.str.6643 = private unnamed_addr constant [20 x i8] c"IB_SG_DATA encoding\00", align 1
@.str.6644 = private unnamed_addr constant [81 x i8] c"Encoding used for the IB-SG-DATA element carrying segments of information blocks\00", align 1
@preferences_ib_sg_data_encoding = internal global i32 0, align 4
@.str.6645 = private unnamed_addr constant [9 x i8] c"nbap.ies\00", align 1
@.str.6646 = private unnamed_addr constant [18 x i8] c"NBAP-PROTOCOL-IES\00", align 1
@nbap_ies_dissector_table = internal global ptr null, align 8
@.str.6647 = private unnamed_addr constant [15 x i8] c"nbap.extension\00", align 1
@.str.6648 = private unnamed_addr constant [24 x i8] c"NBAP-PROTOCOL-EXTENSION\00", align 1
@nbap_extension_dissector_table = internal global ptr null, align 8
@.str.6649 = private unnamed_addr constant [15 x i8] c"nbap.proc.imsg\00", align 1
@.str.6650 = private unnamed_addr constant [44 x i8] c"NBAP-ELEMENTARY-PROCEDURE InitiatingMessage\00", align 1
@nbap_proc_imsg_dissector_table = internal global ptr null, align 8
@.str.6651 = private unnamed_addr constant [15 x i8] c"nbap.proc.sout\00", align 1
@.str.6652 = private unnamed_addr constant [44 x i8] c"NBAP-ELEMENTARY-PROCEDURE SuccessfulOutcome\00", align 1
@nbap_proc_sout_dissector_table = internal global ptr null, align 8
@.str.6653 = private unnamed_addr constant [15 x i8] c"nbap.proc.uout\00", align 1
@.str.6654 = private unnamed_addr constant [46 x i8] c"NBAP-ELEMENTARY-PROCEDURE UnsuccessfulOutcome\00", align 1
@nbap_proc_uout_dissector_table = internal global ptr null, align 8
@com_context_map = internal global ptr null, align 8
@edch_flow_port_map = internal global ptr null, align 8
@nbap_scrambling_code_crncc_map = hidden global ptr null, align 8
@nbap_crncc_urnti_map = hidden global ptr null, align 8

; Function Attrs: null_pointer_is_valid sspstrong uwtable
define hidden void @proto_register_nbap() #0 {
  %1 = alloca ptr, align 8
  %2 = alloca i8, align 1
  %3 = alloca ptr, align 8
  call void @llvm.lifetime.start.p0(i64 8, ptr %1) #13
  call void @llvm.lifetime.start.p0(i64 1, ptr %2) #13
  call void @llvm.lifetime.start.p0(i64 8, ptr %3) #13
  %4 = call i32 @proto_register_protocol(ptr noundef @.str.6639, ptr noundef @.str.6640, ptr noundef @.str.6641)
  store i32 %4, ptr @proto_nbap, align 4
  %5 = load i32, ptr @proto_nbap, align 4
  call void @proto_register_field_array(i32 noundef %5, ptr noundef @proto_register_nbap.hf, i32 noundef 3294)
  call void @proto_register_subtree_array(ptr noundef @proto_register_nbap.ett, i32 noundef 1630)
  %6 = load i32, ptr @proto_nbap, align 4
  %7 = call ptr @expert_register_protocol(i32 noundef %6)
  store ptr %7, ptr %3, align 8
  %8 = load ptr, ptr %3, align 8
  call void @expert_register_field_array(ptr noundef %8, ptr noundef @proto_register_nbap.ei, i32 noundef 3)
  %9 = load i32, ptr @proto_nbap, align 4
  %10 = call ptr @register_dissector(ptr noundef @.str.6641, ptr noundef @dissect_nbap, i32 noundef %9)
  store ptr %10, ptr @nbap_handle, align 8
  %11 = load i32, ptr @proto_nbap, align 4
  %12 = call ptr @prefs_register_protocol(i32 noundef %11, ptr noundef null)
  store ptr %12, ptr %1, align 8
  store i8 0, ptr %2, align 1
  br label %13

13:                                               ; preds = %37, %0
  %14 = load i8, ptr %2, align 1
  %15 = zext i8 %14 to i32
  %16 = icmp slt i32 %15, 16
  br i1 %16, label %17, label %40

17:                                               ; preds = %13
  %18 = load ptr, ptr %1, align 8
  %19 = load i8, ptr %2, align 1
  %20 = zext i8 %19 to i64
  %21 = getelementptr [16 x %struct.preference_strings], ptr @ch_strings, i64 0, i64 %20
  %22 = getelementptr inbounds nuw %struct.preference_strings, ptr %21, i32 0, i32 0
  %23 = load ptr, ptr %22, align 8
  %24 = load i8, ptr %2, align 1
  %25 = zext i8 %24 to i64
  %26 = getelementptr [16 x %struct.preference_strings], ptr @ch_strings, i64 0, i64 %25
  %27 = getelementptr inbounds nuw %struct.preference_strings, ptr %26, i32 0, i32 1
  %28 = load ptr, ptr %27, align 8
  %29 = load i8, ptr %2, align 1
  %30 = zext i8 %29 to i64
  %31 = getelementptr [16 x %struct.preference_strings], ptr @ch_strings, i64 0, i64 %30
  %32 = getelementptr inbounds nuw %struct.preference_strings, ptr %31, i32 0, i32 2
  %33 = load ptr, ptr %32, align 8
  %34 = load i8, ptr %2, align 1
  %35 = zext i8 %34 to i64
  %36 = getelementptr [16 x i32], ptr @lch_contents, i64 0, i64 %35
  call void @prefs_register_enum_preference(ptr noundef %18, ptr noundef %23, ptr noundef %28, ptr noundef %33, ptr noundef %36, ptr noundef @content_types, i1 noundef zeroext false)
  br label %37

37:                                               ; preds = %17
  %38 = load i8, ptr %2, align 1
  %39 = add i8 %38, 1
  store i8 %39, ptr %2, align 1
  br label %13, !llvm.loop !6

40:                                               ; preds = %13
  %41 = load ptr, ptr %1, align 8
  call void @prefs_register_enum_preference(ptr noundef %41, ptr noundef @.str.6642, ptr noundef @.str.6643, ptr noundef @.str.6644, ptr noundef @preferences_ib_sg_data_encoding, ptr noundef @ib_sg_enc_vals, i1 noundef zeroext false)
  %42 = load i32, ptr @proto_nbap, align 4
  %43 = call ptr @register_dissector_table(ptr noundef @.str.6645, ptr noundef @.str.6646, i32 noundef %42, i32 noundef 7, i32 noundef 1)
  store ptr %43, ptr @nbap_ies_dissector_table, align 8
  %44 = load i32, ptr @proto_nbap, align 4
  %45 = call ptr @register_dissector_table(ptr noundef @.str.6647, ptr noundef @.str.6648, i32 noundef %44, i32 noundef 7, i32 noundef 1)
  store ptr %45, ptr @nbap_extension_dissector_table, align 8
  %46 = load i32, ptr @proto_nbap, align 4
  %47 = call ptr @register_dissector_table(ptr noundef @.str.6649, ptr noundef @.str.6650, i32 noundef %46, i32 noundef 26, i32 noundef 0)
  store ptr %47, ptr @nbap_proc_imsg_dissector_table, align 8
  %48 = load i32, ptr @proto_nbap, align 4
  %49 = call ptr @register_dissector_table(ptr noundef @.str.6651, ptr noundef @.str.6652, i32 noundef %48, i32 noundef 26, i32 noundef 0)
  store ptr %49, ptr @nbap_proc_sout_dissector_table, align 8
  %50 = load i32, ptr @proto_nbap, align 4
  %51 = call ptr @register_dissector_table(ptr noundef @.str.6653, ptr noundef @.str.6654, i32 noundef %50, i32 noundef 26, i32 noundef 0)
  store ptr %51, ptr @nbap_proc_uout_dissector_table, align 8
  call void @register_init_routine(ptr noundef @nbap_init)
  %52 = call ptr @wmem_epan_scope()
  %53 = call ptr @wmem_file_scope()
  %54 = call noalias ptr @wmem_tree_new_autoreset(ptr noundef %52, ptr noundef %53)
  store ptr %54, ptr @com_context_map, align 8
  %55 = call ptr @wmem_epan_scope()
  %56 = call ptr @wmem_file_scope()
  %57 = call noalias ptr @wmem_tree_new_autoreset(ptr noundef %55, ptr noundef %56)
  store ptr %57, ptr @edch_flow_port_map, align 8
  %58 = call ptr @wmem_epan_scope()
  %59 = call ptr @wmem_file_scope()
  %60 = call noalias ptr @wmem_tree_new_autoreset(ptr noundef %58, ptr noundef %59)
  store ptr %60, ptr @nbap_scrambling_code_crncc_map, align 8
  %61 = call ptr @wmem_epan_scope()
  %62 = call ptr @wmem_file_scope()
  %63 = call noalias ptr @wmem_tree_new_autoreset(ptr noundef %61, ptr noundef %62)
  store ptr %63, ptr @nbap_crncc_urnti_map, align 8
  call void @llvm.lifetime.end.p0(i64 8, ptr %3) #13
  call void @llvm.lifetime.end.p0(i64 1, ptr %2) #13
  call void @llvm.lifetime.end.p0(i64 8, ptr %1) #13
  ret void
}