; Function Attrs: null_pointer_is_valid sspstrong uwtable
define hidden void @proto_register_nbap() local_unnamed_addr #0 {
  %1 = tail call i32 @proto_register_protocol(ptr noundef nonnull @.str.6639, ptr noundef nonnull @.str.6640, ptr noundef nonnull @.str.6641)
  store i32 %1, ptr @proto_nbap, align 4
  tail call void @proto_register_field_array(i32 noundef %1, ptr noundef nonnull @proto_register_nbap.hf, i32 noundef 3294)
  tail call void @proto_register_subtree_array(ptr noundef nonnull @proto_register_nbap.ett, i32 noundef 1630)
  %2 = load i32, ptr @proto_nbap, align 4
  %3 = tail call ptr @expert_register_protocol(i32 noundef %2)
  tail call void @expert_register_field_array(ptr noundef %3, ptr noundef nonnull @proto_register_nbap.ei, i32 noundef 3)
  %4 = load i32, ptr @proto_nbap, align 4
  %5 = tail call ptr @register_dissector(ptr noundef nonnull @.str.6641, ptr noundef nonnull @dissect_nbap, i32 noundef %4)
  store ptr %5, ptr @nbap_handle, align 8
  %6 = load i32, ptr @proto_nbap, align 4
  %7 = tail call ptr @prefs_register_protocol(i32 noundef %6, ptr noundef null)
  br label %8

8:                                                ; preds = %0, %8
  %indvars.iv = phi i64 [ 0, %0 ], [ %indvars.iv.next, %8 ]
  %9 = getelementptr [16 x %struct.preference_strings], ptr @ch_strings, i64 0, i64 %indvars.iv
  %10 = load ptr, ptr %9, align 8
  %11 = getelementptr inbounds nuw i8, ptr %9, i64 8
  %12 = load ptr, ptr %11, align 8
  %13 = getelementptr inbounds nuw i8, ptr %9, i64 16
  %14 = load ptr, ptr %13, align 8
  %15 = getelementptr [16 x i32], ptr @lch_contents, i64 0, i64 %indvars.iv
  tail call void @prefs_register_enum_preference(ptr noundef %7, ptr noundef %10, ptr noundef %12, ptr noundef %14, ptr noundef %15, ptr noundef nonnull @content_types, i1 noundef zeroext false)
  %indvars.iv.next = add nuw nsw i64 %indvars.iv, 1
  %exitcond.not = icmp eq i64 %indvars.iv.next, 16
  br i1 %exitcond.not, label %16, label %8, !llvm.loop !6

16:                                               ; preds = %8
  tail call void @prefs_register_enum_preference(ptr noundef %7, ptr noundef nonnull @.str.6642, ptr noundef nonnull @.str.6643, ptr noundef nonnull @.str.6644, ptr noundef nonnull @preferences_ib_sg_data_encoding, ptr noundef nonnull @ib_sg_enc_vals, i1 noundef zeroext false)
  %17 = load i32, ptr @proto_nbap, align 4
  %18 = tail call ptr @register_dissector_table(ptr noundef nonnull @.str.6645, ptr noundef nonnull @.str.6646, i32 noundef %17, i32 noundef 7, i32 noundef 1)
  store ptr %18, ptr @nbap_ies_dissector_table, align 8
  %19 = load i32, ptr @proto_nbap, align 4
  %20 = tail call ptr @register_dissector_table(ptr noundef nonnull @.str.6647, ptr noundef nonnull @.str.6648, i32 noundef %19, i32 noundef 7, i32 noundef 1)
  store ptr %20, ptr @nbap_extension_dissector_table, align 8
  %21 = load i32, ptr @proto_nbap, align 4
  %22 = tail call ptr @register_dissector_table(ptr noundef nonnull @.str.6649, ptr noundef nonnull @.str.6650, i32 noundef %21, i32 noundef 26, i32 noundef 0)
  store ptr %22, ptr @nbap_proc_imsg_dissector_table, align 8
  %23 = load i32, ptr @proto_nbap, align 4
  %24 = tail call ptr @register_dissector_table(ptr noundef nonnull @.str.6651, ptr noundef nonnull @.str.6652, i32 noundef %23, i32 noundef 26, i32 noundef 0)
  store ptr %24, ptr @nbap_proc_sout_dissector_table, align 8
  %25 = load i32, ptr @proto_nbap, align 4
  %26 = tail call ptr @register_dissector_table(ptr noundef nonnull @.str.6653, ptr noundef nonnull @.str.6654, i32 noundef %25, i32 noundef 26, i32 noundef 0)
  store ptr %26, ptr @nbap_proc_uout_dissector_table, align 8
  tail call void @register_init_routine(ptr noundef nonnull @nbap_init)
  %27 = tail call ptr @wmem_epan_scope()
  %28 = tail call ptr @wmem_file_scope()
  %29 = tail call noalias ptr @wmem_tree_new_autoreset(ptr noundef %27, ptr noundef %28)
  store ptr %29, ptr @com_context_map, align 8
  %30 = tail call ptr @wmem_epan_scope()
  %31 = tail call ptr @wmem_file_scope()
  %32 = tail call noalias ptr @wmem_tree_new_autoreset(ptr noundef %30, ptr noundef %31)
  store ptr %32, ptr @edch_flow_port_map, align 8
  %33 = tail call ptr @wmem_epan_scope()
  %34 = tail call ptr @wmem_file_scope()
  %35 = tail call noalias ptr @wmem_tree_new_autoreset(ptr noundef %33, ptr noundef %34)
  store ptr %35, ptr @nbap_scrambling_code_crncc_map, align 8
  %36 = tail call ptr @wmem_epan_scope()
  %37 = tail call ptr @wmem_file_scope()
  %38 = tail call noalias ptr @wmem_tree_new_autoreset(ptr noundef %36, ptr noundef %37)
  store ptr %38, ptr @nbap_crncc_urnti_map, align 8
  ret void
}